; Function Attrs: mustprogress nofree norecurse nosync nounwind willreturn memory(read, inaccessiblemem: none) uwtable
define dso_local i64 @brin_minmax_multi_distance_timetz(ptr noundef readonly captures(none) %0) local_unnamed_addr #4 {
  %2 = getelementptr inbounds nuw i8, ptr %0, i64 32
  %3 = load i64, ptr %2, align 8
  %4 = inttoptr i64 %3 to ptr
  %5 = getelementptr inbounds nuw i8, ptr %0, i64 48
  %6 = load i64, ptr %5, align 8
  %7 = inttoptr i64 %6 to ptr
  %8 = load i64, ptr %7, align 8
  %9 = load i64, ptr %4, align 8
  %10 = sub i64 %8, %9
  %11 = getelementptr inbounds nuw i8, ptr %7, i64 8
  %12 = load i32, ptr %11, align 8
  %13 = getelementptr inbounds nuw i8, ptr %4, i64 8
  %14 = load i32, ptr %13, align 8
  %15 = sub i32 %12, %14
  %16 = sext i32 %15 to i64
  %17 = mul nsw i64 %16, 1000000
  %18 = add i64 %10, %17
  %19 = sitofp i64 %18 to double
  %20 = bitcast double %19 to i64
  ret i64 %20
}